target datalayout = "e-m:e-p270:32:32-p271:32:32-p272:64:64-i64:64-i128:128-f80:128-n8:16:32:64-S128"
target triple = "x86_64-pc-linux-gnu"

@_ZN2cv6base64L14base64_mappingE = internal constant [65 x i8] c"ABCDEFGHIJKLMNOPQRSTUVWXYZabcdefghijklmnopqrstuvwxyz0123456789+/\00", align 16

; Function Attrs: mustprogress nounwind uwtable
define hidden noundef i64 @_ZN2cv6base6413base64_encodeEPKhPhmm(ptr noundef %0, ptr noundef %1, i64 noundef %2, i64 noundef %3) #3 {
  %5 = alloca i64, align 8
  %6 = alloca ptr, align 8
  %7 = alloca ptr, align 8
  %8 = alloca i64, align 8
  %9 = alloca i64, align 8
  %10 = alloca ptr, align 8
  %11 = alloca ptr, align 8
  %12 = alloca ptr, align 8
  %13 = alloca ptr, align 8
  %14 = alloca ptr, align 8
  %15 = alloca i8, align 1
  %16 = alloca i8, align 1
  %17 = alloca i8, align 1
  %18 = alloca i64, align 8
  %19 = alloca i8, align 1
  %20 = alloca i8, align 1
  %21 = alloca i8, align 1
  store ptr %0, ptr %6, align 8, !tbaa !3
  store ptr %1, ptr %7, align 8, !tbaa !3
  store i64 %2, ptr %8, align 8, !tbaa !25
  store i64 %3, ptr %9, align 8, !tbaa !25
  %22 = load ptr, ptr %6, align 8, !tbaa !3
  %23 = icmp ne ptr %22, null
  br i1 %23, label %24, label %30

24:                                               ; preds = %4
  %25 = load ptr, ptr %7, align 8, !tbaa !3
  %26 = icmp ne ptr %25, null
  br i1 %26, label %27, label %30

27:                                               ; preds = %24
  %28 = load i64, ptr %9, align 8, !tbaa !25
  %29 = icmp ne i64 %28, 0
  br i1 %29, label %31, label %30

30:                                               ; preds = %27, %24, %4
  store i64 0, ptr %5, align 8
  br label %190

31:                                               ; preds = %27
  call void @llvm.lifetime.start.p0(i64 8, ptr %10) #15
  %32 = load ptr, ptr %7, align 8, !tbaa !3
  store ptr %32, ptr %10, align 8, !tbaa !3
  call void @llvm.lifetime.start.p0(i64 8, ptr %11) #15
  %33 = load ptr, ptr %10, align 8, !tbaa !3
  store ptr %33, ptr %11, align 8, !tbaa !3
  call void @llvm.lifetime.start.p0(i64 8, ptr %12) #15
  %34 = load ptr, ptr %6, align 8, !tbaa !3
  %35 = load i64, ptr %8, align 8, !tbaa !25
  %36 = getelementptr inbounds nuw i8, ptr %34, i64 %35
  store ptr %36, ptr %12, align 8, !tbaa !3
  call void @llvm.lifetime.start.p0(i64 8, ptr %13) #15
  %37 = load ptr, ptr %12, align 8, !tbaa !3
  store ptr %37, ptr %13, align 8, !tbaa !3
  call void @llvm.lifetime.start.p0(i64 8, ptr %14) #15
  %38 = load ptr, ptr %13, align 8, !tbaa !3
  %39 = load i64, ptr %9, align 8, !tbaa !25
  %40 = udiv i64 %39, 3
  %41 = mul i64 %40, 3
  %42 = getelementptr inbounds nuw i8, ptr %38, i64 %41
  store ptr %42, ptr %14, align 8, !tbaa !3
  br label %43

43:                                               ; preds = %47, %31
  %44 = load ptr, ptr %13, align 8, !tbaa !3
  %45 = load ptr, ptr %14, align 8, !tbaa !3
  %46 = icmp ult ptr %44, %45
  br i1 %46, label %47, label %101

47:                                               ; preds = %43
  call void @llvm.lifetime.start.p0(i64 1, ptr %15) #15
  %48 = load ptr, ptr %13, align 8, !tbaa !3
  %49 = getelementptr inbounds nuw i8, ptr %48, i32 1
  store ptr %49, ptr %13, align 8, !tbaa !3
  %50 = load i8, ptr %48, align 1, !tbaa !16
  store i8 %50, ptr %15, align 1, !tbaa !16
  call void @llvm.lifetime.start.p0(i64 1, ptr %16) #15
  %51 = load ptr, ptr %13, align 8, !tbaa !3
  %52 = getelementptr inbounds nuw i8, ptr %51, i32 1
  store ptr %52, ptr %13, align 8, !tbaa !3
  %53 = load i8, ptr %51, align 1, !tbaa !16
  store i8 %53, ptr %16, align 1, !tbaa !16
  call void @llvm.lifetime.start.p0(i64 1, ptr %17) #15
  %54 = load ptr, ptr %13, align 8, !tbaa !3
  %55 = getelementptr inbounds nuw i8, ptr %54, i32 1
  store ptr %55, ptr %13, align 8, !tbaa !3
  %56 = load i8, ptr %54, align 1, !tbaa !16
  store i8 %56, ptr %17, align 1, !tbaa !16
  %57 = load i8, ptr %15, align 1, !tbaa !16
  %58 = zext i8 %57 to i32
  %59 = ashr i32 %58, 2
  %60 = sext i32 %59 to i64
  %61 = getelementptr inbounds [65 x i8], ptr @_ZN2cv6base64L14base64_mappingE, i64 0, i64 %60
  %62 = load i8, ptr %61, align 1, !tbaa !16
  %63 = load ptr, ptr %11, align 8, !tbaa !3
  %64 = getelementptr inbounds nuw i8, ptr %63, i32 1
  store ptr %64, ptr %11, align 8, !tbaa !3
  store i8 %62, ptr %63, align 1, !tbaa !16
  %65 = load i8, ptr %16, align 1, !tbaa !16
  %66 = zext i8 %65 to i32
  %67 = and i32 %66, 240
  %68 = lshr i32 %67, 4
  %69 = load i8, ptr %15, align 1, !tbaa !16
  %70 = zext i8 %69 to i32
  %71 = and i32 %70, 3
  %72 = shl i32 %71, 4
  %73 = or i32 %68, %72
  %74 = zext i32 %73 to i64
  %75 = getelementptr inbounds nuw [65 x i8], ptr @_ZN2cv6base64L14base64_mappingE, i64 0, i64 %74
  %76 = load i8, ptr %75, align 1, !tbaa !16
  %77 = load ptr, ptr %11, align 8, !tbaa !3
  %78 = getelementptr inbounds nuw i8, ptr %77, i32 1
  store ptr %78, ptr %11, align 8, !tbaa !3
  store i8 %76, ptr %77, align 1, !tbaa !16
  %79 = load i8, ptr %17, align 1, !tbaa !16
  %80 = zext i8 %79 to i32
  %81 = and i32 %80, 192
  %82 = lshr i32 %81, 6
  %83 = load i8, ptr %16, align 1, !tbaa !16
  %84 = zext i8 %83 to i32
  %85 = and i32 %84, 15
  %86 = shl i32 %85, 2
  %87 = or i32 %82, %86
  %88 = zext i32 %87 to i64
  %89 = getelementptr inbounds nuw [65 x i8], ptr @_ZN2cv6base64L14base64_mappingE, i64 0, i64 %88
  %90 = load i8, ptr %89, align 1, !tbaa !16
  %91 = load ptr, ptr %11, align 8, !tbaa !3
  %92 = getelementptr inbounds nuw i8, ptr %91, i32 1
  store ptr %92, ptr %11, align 8, !tbaa !3
  store i8 %90, ptr %91, align 1, !tbaa !16
  %93 = load i8, ptr %17, align 1, !tbaa !16
  %94 = zext i8 %93 to i32
  %95 = and i32 %94, 63
  %96 = zext i32 %95 to i64
  %97 = getelementptr inbounds nuw [65 x i8], ptr @_ZN2cv6base64L14base64_mappingE, i64 0, i64 %96
  %98 = load i8, ptr %97, align 1, !tbaa !16
  %99 = load ptr, ptr %11, align 8, !tbaa !3
  %100 = getelementptr inbounds nuw i8, ptr %99, i32 1
  store ptr %100, ptr %11, align 8, !tbaa !3
  store i8 %98, ptr %99, align 1, !tbaa !16
  call void @llvm.lifetime.end.p0(i64 1, ptr %17) #15
  call void @llvm.lifetime.end.p0(i64 1, ptr %16) #15
  call void @llvm.lifetime.end.p0(i64 1, ptr %15) #15
  br label %43, !llvm.loop !26

101:                                              ; preds = %43
  call void @llvm.lifetime.start.p0(i64 8, ptr %18) #15
  %102 = load ptr, ptr %12, align 8, !tbaa !3
  %103 = load i64, ptr %9, align 8, !tbaa !25
  %104 = getelementptr inbounds nuw i8, ptr %102, i64 %103
  %105 = load ptr, ptr %13, align 8, !tbaa !3
  %106 = ptrtoint ptr %104 to i64
  %107 = ptrtoint ptr %105 to i64
  %108 = sub i64 %106, %107
  store i64 %108, ptr %18, align 8, !tbaa !25
  %109 = load i64, ptr %18, align 8, !tbaa !25
  %110 = icmp eq i64 %109, 1
  br i1 %110, label %111, label %132

111:                                              ; preds = %101
  call void @llvm.lifetime.start.p0(i64 1, ptr %19) #15
  %112 = load ptr, ptr %13, align 8, !tbaa !3
  %113 = getelementptr inbounds nuw i8, ptr %112, i32 1
  store ptr %113, ptr %13, align 8, !tbaa !3
  %114 = load i8, ptr %112, align 1, !tbaa !16
  store i8 %114, ptr %19, align 1, !tbaa !16
  %115 = load i8, ptr %19, align 1, !tbaa !16
  %116 = zext i8 %115 to i32
  %117 = ashr i32 %116, 2
  %118 = sext i32 %117 to i64
  %119 = getelementptr inbounds [65 x i8], ptr @_ZN2cv6base64L14base64_mappingE, i64 0, i64 %118
  %120 = load i8, ptr %119, align 1, !tbaa !16
  %121 = load ptr, ptr %11, align 8, !tbaa !3
  %122 = getelementptr inbounds nuw i8, ptr %121, i32 1
  store ptr %122, ptr %11, align 8, !tbaa !3
  store i8 %120, ptr %121, align 1, !tbaa !16
  %123 = load i8, ptr %19, align 1, !tbaa !16
  %124 = zext i8 %123 to i32
  %125 = and i32 %124, 3
  %126 = shl i32 %125, 4
  %127 = zext i32 %126 to i64
  %128 = getelementptr inbounds nuw [65 x i8], ptr @_ZN2cv6base64L14base64_mappingE, i64 0, i64 %127
  %129 = load i8, ptr %128, align 1, !tbaa !16
  %130 = load ptr, ptr %11, align 8, !tbaa !3
  %131 = getelementptr inbounds nuw i8, ptr %130, i32 1
  store ptr %131, ptr %11, align 8, !tbaa !3
  store i8 %129, ptr %130, align 1, !tbaa !16
  call void @llvm.lifetime.end.p0(i64 1, ptr %19) #15
  br label %174

132:                                              ; preds = %101
  %133 = load i64, ptr %18, align 8, !tbaa !25
  %134 = icmp eq i64 %133, 2
  br i1 %134, label %135, label %173

135:                                              ; preds = %132
  call void @llvm.lifetime.start.p0(i64 1, ptr %20) #15
  %136 = load ptr, ptr %13, align 8, !tbaa !3
  %137 = getelementptr inbounds nuw i8, ptr %136, i32 1
  store ptr %137, ptr %13, align 8, !tbaa !3
  %138 = load i8, ptr %136, align 1, !tbaa !16
  store i8 %138, ptr %20, align 1, !tbaa !16
  call void @llvm.lifetime.start.p0(i64 1, ptr %21) #15
  %139 = load ptr, ptr %13, align 8, !tbaa !3
  %140 = getelementptr inbounds nuw i8, ptr %139, i32 1
  store ptr %140, ptr %13, align 8, !tbaa !3
  %141 = load i8, ptr %139, align 1, !tbaa !16
  store i8 %141, ptr %21, align 1, !tbaa !16
  %142 = load i8, ptr %20, align 1, !tbaa !16
  %143 = zext i8 %142 to i32
  %144 = ashr i32 %143, 2
  %145 = sext i32 %144 to i64
  %146 = getelementptr inbounds [65 x i8], ptr @_ZN2cv6base64L14base64_mappingE, i64 0, i64 %145
  %147 = load i8, ptr %146, align 1, !tbaa !16
  %148 = load ptr, ptr %11, align 8, !tbaa !3
  %149 = getelementptr inbounds nuw i8, ptr %148, i32 1
  store ptr %149, ptr %11, align 8, !tbaa !3
  store i8 %147, ptr %148, align 1, !tbaa !16
  %150 = load i8, ptr %20, align 1, !tbaa !16
  %151 = zext i8 %150 to i32
  %152 = and i32 %151, 3
  %153 = shl i32 %152, 4
  %154 = load i8, ptr %21, align 1, !tbaa !16
  %155 = zext i8 %154 to i32
  %156 = and i32 %155, 240
  %157 = lshr i32 %156, 4
  %158 = or i32 %153, %157
  %159 = zext i32 %158 to i64
  %160 = getelementptr inbounds nuw [65 x i8], ptr @_ZN2cv6base64L14base64_mappingE, i64 0, i64 %159
  %161 = load i8, ptr %160, align 1, !tbaa !16
  %162 = load ptr, ptr %11, align 8, !tbaa !3
  %163 = getelementptr inbounds nuw i8, ptr %162, i32 1
  store ptr %163, ptr %11, align 8, !tbaa !3
  store i8 %161, ptr %162, align 1, !tbaa !16
  %164 = load i8, ptr %21, align 1, !tbaa !16
  %165 = zext i8 %164 to i32
  %166 = and i32 %165, 15
  %167 = shl i32 %166, 2
  %168 = zext i32 %167 to i64
  %169 = getelementptr inbounds nuw [65 x i8], ptr @_ZN2cv6base64L14base64_mappingE, i64 0, i64 %168
  %170 = load i8, ptr %169, align 1, !tbaa !16
  %171 = load ptr, ptr %11, align 8, !tbaa !3
  %172 = getelementptr inbounds nuw i8, ptr %171, i32 1
  store ptr %172, ptr %11, align 8, !tbaa !3
  store i8 %170, ptr %171, align 1, !tbaa !16
  call void @llvm.lifetime.end.p0(i64 1, ptr %21) #15
  call void @llvm.lifetime.end.p0(i64 1, ptr %20) #15
  br label %173

173:                                              ; preds = %135, %132
  br label %174

174:                                              ; preds = %173, %111
  %175 = load i64, ptr %18, align 8, !tbaa !25
  switch i64 %175, label %182 [
    i64 1, label %176
    i64 2, label %179
  ]

176:                                              ; preds = %174
  %177 = load ptr, ptr %11, align 8, !tbaa !3
  %178 = getelementptr inbounds nuw i8, ptr %177, i32 1
  store ptr %178, ptr %11, align 8, !tbaa !3
  store i8 61, ptr %177, align 1, !tbaa !16
  br label %179

179:                                              ; preds = %174, %176
  %180 = load ptr, ptr %11, align 8, !tbaa !3
  %181 = getelementptr inbounds nuw i8, ptr %180, i32 1
  store ptr %181, ptr %11, align 8, !tbaa !3
  store i8 61, ptr %180, align 1, !tbaa !16
  br label %182

182:                                              ; preds = %174, %179
  %183 = load ptr, ptr %11, align 8, !tbaa !3
  store i8 0, ptr %183, align 1, !tbaa !16
  br label %184

184:                                              ; preds = %182
  %185 = load ptr, ptr %11, align 8, !tbaa !3
  %186 = load ptr, ptr %10, align 8, !tbaa !3
  %187 = ptrtoint ptr %185 to i64
  %188 = ptrtoint ptr %186 to i64
  %189 = sub i64 %187, %188
  store i64 %189, ptr %5, align 8
  call void @llvm.lifetime.end.p0(i64 8, ptr %18) #15
  call void @llvm.lifetime.end.p0(i64 8, ptr %14) #15
  call void @llvm.lifetime.end.p0(i64 8, ptr %13) #15
  call void @llvm.lifetime.end.p0(i64 8, ptr %12) #15
  call void @llvm.lifetime.end.p0(i64 8, ptr %11) #15
  call void @llvm.lifetime.end.p0(i64 8, ptr %10) #15
  br label %190

190:                                              ; preds = %184, %30
  %191 = load i64, ptr %5, align 8
  ret i64 %191
}