; Function Attrs: mustprogress nofree norecurse nosync nounwind memory(argmem: readwrite) uwtable
define hidden noundef i64 @_ZN2cv6base6413base64_encodeEPKhPhmm(ptr noundef %0, ptr noundef %1, i64 noundef %2, i64 noundef %3) local_unnamed_addr #5 {
  %5 = icmp ne ptr %0, null
  %6 = icmp ne ptr %1, null
  %or.cond = and i1 %5, %6
  %7 = icmp ne i64 %3, 0
  %or.cond3 = and i1 %or.cond, %7
  br i1 %or.cond3, label %8, label %95

8:                                                ; preds = %4
  %9 = getelementptr inbounds nuw i8, ptr %0, i64 %2
  %10 = urem i64 %3, 3
  %11 = sub nuw i64 %3, %10
  %12 = getelementptr inbounds nuw i8, ptr %9, i64 %11
  %.not = icmp eq i64 %3, %10
  br i1 %.not, label %._crit_edge, label %.lr.ph

.lr.ph:                                           ; preds = %8, %.lr.ph
  %.05364 = phi ptr [ %47, %.lr.ph ], [ %1, %8 ]
  %.05463 = phi ptr [ %17, %.lr.ph ], [ %9, %8 ]
  %13 = getelementptr inbounds nuw i8, ptr %.05463, i64 1
  %14 = load i8, ptr %.05463, align 1, !tbaa !19
  %15 = getelementptr inbounds nuw i8, ptr %.05463, i64 2
  %16 = load i8, ptr %13, align 1, !tbaa !19
  %17 = getelementptr inbounds nuw i8, ptr %.05463, i64 3
  %18 = load i8, ptr %15, align 1, !tbaa !19
  %19 = zext i8 %14 to i32
  %20 = lshr i32 %19, 2
  %21 = zext nneg i32 %20 to i64
  %22 = getelementptr inbounds nuw [65 x i8], ptr @_ZN2cv6base64L14base64_mappingE, i64 0, i64 %21
  %23 = load i8, ptr %22, align 1, !tbaa !19
  %24 = getelementptr inbounds nuw i8, ptr %.05364, i64 1
  store i8 %23, ptr %.05364, align 1, !tbaa !19
  %25 = zext i8 %16 to i32
  %26 = lshr i32 %25, 4
  %27 = shl nuw nsw i32 %19, 4
  %28 = and i32 %27, 48
  %29 = or disjoint i32 %26, %28
  %30 = zext nneg i32 %29 to i64
  %31 = getelementptr inbounds nuw [65 x i8], ptr @_ZN2cv6base64L14base64_mappingE, i64 0, i64 %30
  %32 = load i8, ptr %31, align 1, !tbaa !19
  %33 = getelementptr inbounds nuw i8, ptr %.05364, i64 2
  store i8 %32, ptr %24, align 1, !tbaa !19
  %34 = zext i8 %18 to i32
  %35 = lshr i32 %34, 6
  %36 = shl nuw nsw i32 %25, 2
  %37 = and i32 %36, 60
  %38 = or disjoint i32 %35, %37
  %39 = zext nneg i32 %38 to i64
  %40 = getelementptr inbounds nuw [65 x i8], ptr @_ZN2cv6base64L14base64_mappingE, i64 0, i64 %39
  %41 = load i8, ptr %40, align 1, !tbaa !19
  %42 = getelementptr inbounds nuw i8, ptr %.05364, i64 3
  store i8 %41, ptr %33, align 1, !tbaa !19
  %43 = and i32 %34, 63
  %44 = zext nneg i32 %43 to i64
  %45 = getelementptr inbounds nuw [65 x i8], ptr @_ZN2cv6base64L14base64_mappingE, i64 0, i64 %44
  %46 = load i8, ptr %45, align 1, !tbaa !19
  %47 = getelementptr inbounds nuw i8, ptr %.05364, i64 4
  store i8 %46, ptr %42, align 1, !tbaa !19
  %48 = icmp ult ptr %17, %12
  br i1 %48, label %.lr.ph, label %._crit_edge, !llvm.loop !37

._crit_edge:                                      ; preds = %.lr.ph, %8
  %.054.lcssa = phi ptr [ %9, %8 ], [ %17, %.lr.ph ]
  %.053.lcssa = phi ptr [ %1, %8 ], [ %47, %.lr.ph ]
  %49 = getelementptr inbounds nuw i8, ptr %9, i64 %3
  %50 = ptrtoint ptr %49 to i64
  %51 = ptrtoint ptr %.054.lcssa to i64
  %52 = sub i64 %50, %51
  switch i64 %52, label %91 [
    i64 1, label %.thread
    i64 2, label %.thread61
  ]

.thread:                                          ; preds = %._crit_edge
  %53 = load i8, ptr %.054.lcssa, align 1, !tbaa !19
  %54 = zext i8 %53 to i32
  %55 = lshr i32 %54, 2
  %56 = zext nneg i32 %55 to i64
  %57 = getelementptr inbounds nuw [65 x i8], ptr @_ZN2cv6base64L14base64_mappingE, i64 0, i64 %56
  %58 = load i8, ptr %57, align 1, !tbaa !19
  %59 = getelementptr inbounds nuw i8, ptr %.053.lcssa, i64 1
  store i8 %58, ptr %.053.lcssa, align 1, !tbaa !19
  %60 = shl nuw nsw i32 %54, 4
  %61 = and i32 %60, 48
  %62 = zext nneg i32 %61 to i64
  %63 = getelementptr inbounds nuw [65 x i8], ptr @_ZN2cv6base64L14base64_mappingE, i64 0, i64 %62
  %64 = load i8, ptr %63, align 16, !tbaa !19
  %65 = getelementptr inbounds nuw i8, ptr %.053.lcssa, i64 2
  store i8 %64, ptr %59, align 1, !tbaa !19
  store i8 61, ptr %65, align 1, !tbaa !19
  br label %89

.thread61:                                        ; preds = %._crit_edge
  %66 = getelementptr inbounds nuw i8, ptr %.054.lcssa, i64 1
  %67 = load i8, ptr %.054.lcssa, align 1, !tbaa !19
  %68 = load i8, ptr %66, align 1, !tbaa !19
  %69 = zext i8 %67 to i32
  %70 = lshr i32 %69, 2
  %71 = zext nneg i32 %70 to i64
  %72 = getelementptr inbounds nuw [65 x i8], ptr @_ZN2cv6base64L14base64_mappingE, i64 0, i64 %71
  %73 = load i8, ptr %72, align 1, !tbaa !19
  %74 = getelementptr inbounds nuw i8, ptr %.053.lcssa, i64 1
  store i8 %73, ptr %.053.lcssa, align 1, !tbaa !19
  %75 = shl nuw nsw i32 %69, 4
  %76 = and i32 %75, 48
  %77 = zext i8 %68 to i32
  %78 = lshr i32 %77, 4
  %79 = or disjoint i32 %76, %78
  %80 = zext nneg i32 %79 to i64
  %81 = getelementptr inbounds nuw [65 x i8], ptr @_ZN2cv6base64L14base64_mappingE, i64 0, i64 %80
  %82 = load i8, ptr %81, align 1, !tbaa !19
  %83 = getelementptr inbounds nuw i8, ptr %.053.lcssa, i64 2
  store i8 %82, ptr %74, align 1, !tbaa !19
  %84 = shl nuw nsw i32 %77, 2
  %85 = and i32 %84, 60
  %86 = zext nneg i32 %85 to i64
  %87 = getelementptr inbounds nuw [65 x i8], ptr @_ZN2cv6base64L14base64_mappingE, i64 0, i64 %86
  %88 = load i8, ptr %87, align 4, !tbaa !19
  store i8 %88, ptr %83, align 1, !tbaa !19
  br label %89

89:                                               ; preds = %.thread61, %.thread
  %.3 = getelementptr inbounds nuw i8, ptr %.053.lcssa, i64 3
  %90 = getelementptr inbounds nuw i8, ptr %.053.lcssa, i64 4
  store i8 61, ptr %.3, align 1, !tbaa !19
  br label %91

91:                                               ; preds = %._crit_edge, %89
  %.2 = phi ptr [ %90, %89 ], [ %.053.lcssa, %._crit_edge ]
  store i8 0, ptr %.2, align 1, !tbaa !19
  %92 = ptrtoint ptr %.2 to i64
  %93 = ptrtoint ptr %1 to i64
  %94 = sub i64 %92, %93
  br label %95

95:                                               ; preds = %4, %91
  %.0 = phi i64 [ %94, %91 ], [ 0, %4 ]
  ret i64 %.0
}